target datalayout = "e-m:e-p270:32:32-p271:32:32-p272:64:64-i64:64-i128:128-f80:128-n8:16:32:64-S128"
target triple = "x86_64-unknown-linux-gnu"

%"class.sat::literal" = type { i32 }
%"struct.sat::npn3_finder::binary" = type { %"class.sat::literal", %"class.sat::literal", ptr }

@_ZN3satL12null_literalE = internal global %"class.sat::literal" zeroinitializer, align 4

; Function Attrs: mustprogress nounwind uwtable
define hidden void @_ZN3sat11npn3_finder6binaryC2Ev(ptr noundef nonnull align 8 dereferenceable(16) %this) unnamed_addr #4 align 2 {
entry:
  %this.addr = alloca ptr, align 8
  store ptr %this, ptr %this.addr, align 8
  %this1 = load ptr, ptr %this.addr, align 8
  %x = getelementptr inbounds %"struct.sat::npn3_finder::binary", ptr %this1, i32 0, i32 0
  call void @llvm.memcpy.p0.p0.i64(ptr align 8 %x, ptr align 4 @_ZN3satL12null_literalE, i64 4, i1 false)
  %y = getelementptr inbounds %"struct.sat::npn3_finder::binary", ptr %this1, i32 0, i32 1
  call void @llvm.memcpy.p0.p0.i64(ptr align 4 %y, ptr align 4 @_ZN3satL12null_literalE, i64 4, i1 false)
  %use_list = getelementptr inbounds %"struct.sat::npn3_finder::binary", ptr %this1, i32 0, i32 2
  store ptr null, ptr %use_list, align 8
  ret void
}